; Function Attrs: nounwind uwtable
define dso_local void @end_tup_output(ptr noundef %0) local_unnamed_addr #1 {
  %2 = getelementptr inbounds nuw i8, ptr %0, i64 8
  %3 = load ptr, ptr %2, align 8
  %4 = getelementptr inbounds nuw i8, ptr %3, i64 16
  %5 = load ptr, ptr %4, align 8
  tail call void %5(ptr noundef %3) #14
  %6 = load ptr, ptr %0, align 8
  %7 = getelementptr inbounds nuw i8, ptr %6, i64 8
  %8 = load ptr, ptr %7, align 8
  %9 = getelementptr inbounds nuw i8, ptr %8, i64 24
  %10 = load ptr, ptr %9, align 8
  tail call void %10(ptr noundef %6) #14
  %11 = load ptr, ptr %7, align 8
  %12 = getelementptr inbounds nuw i8, ptr %11, i64 16
  %13 = load ptr, ptr %12, align 8
  tail call void %13(ptr noundef %6) #14
  %14 = getelementptr inbounds nuw i8, ptr %6, i64 16
  %15 = load ptr, ptr %14, align 8
  %.not.i = icmp eq ptr %15, null
  br i1 %.not.i, label %21, label %16

16:                                               ; preds = %1
  %17 = getelementptr inbounds nuw i8, ptr %15, i64 12
  %18 = load i32, ptr %17, align 4
  %19 = icmp sgt i32 %18, -1
  br i1 %19, label %20, label %21

20:                                               ; preds = %16
  tail call void @DecrTupleDescRefCount(ptr noundef nonnull %15) #14
  br label %21

21:                                               ; preds = %20, %16, %1
  %22 = getelementptr inbounds nuw i8, ptr %6, i64 4
  %23 = load i16, ptr %22, align 4
  %24 = and i16 %23, 16
  %.not14.i = icmp eq i16 %24, 0
  br i1 %.not14.i, label %25, label %ExecDropSingleTupleTableSlot.exit

25:                                               ; preds = %21
  %26 = getelementptr inbounds nuw i8, ptr %6, i64 24
  %27 = load ptr, ptr %26, align 8
  %.not15.i = icmp eq ptr %27, null
  br i1 %.not15.i, label %29, label %28

28:                                               ; preds = %25
  tail call void @pfree(ptr noundef nonnull %27) #14
  br label %29

29:                                               ; preds = %28, %25
  %30 = getelementptr inbounds nuw i8, ptr %6, i64 32
  %31 = load ptr, ptr %30, align 8
  %.not16.i = icmp eq ptr %31, null
  br i1 %.not16.i, label %ExecDropSingleTupleTableSlot.exit, label %32

32:                                               ; preds = %29
  tail call void @pfree(ptr noundef nonnull %31) #14
  br label %ExecDropSingleTupleTableSlot.exit

ExecDropSingleTupleTableSlot.exit:                ; preds = %21, %29, %32
  tail call void @pfree(ptr noundef nonnull %6) #14
  tail call void @pfree(ptr noundef nonnull %0) #14
  ret void
}